; Function Attrs: mustprogress uwtable
define ptr @uspoof_getCheckResultNumerics_75(ptr noundef %checkResult, ptr noundef nonnull %status) local_unnamed_addr #0 {
entry:
  %call = tail call noundef ptr @_ZN6icu_7511CheckResult12validateThisEPK17USpoofCheckResultR10UErrorCode(ptr noundef %checkResult, ptr noundef nonnull align 4 dereferenceable(4) %status)
  %0 = load i32, ptr %status, align 4
  %cmp.i = icmp slt i32 %0, 1
  %fNumerics = getelementptr inbounds i8, ptr %call, i64 16
  %spec.select = select i1 %cmp.i, ptr %fNumerics, ptr null
  ret ptr %spec.select
}